; Function Attrs: mustprogress uwtable
define void @_ZN5arrow20FixedSizeBinaryArrayC2ERKSt10shared_ptrINS_9ArrayDataEE(ptr noundef nonnull align 8 dereferenceable(44) %this, ptr noundef nonnull align 8 dereferenceable(16) %data) unnamed_addr #0 align 2 personality ptr @__gxx_personality_v0 {
entry:
  %data_.i.i.i = getelementptr inbounds i8, ptr %this, i64 8
  tail call void @llvm.memset.p0.i64(ptr noundef nonnull align 8 dereferenceable(24) %data_.i.i.i, i8 0, i64 24, i1 false)
  %raw_values_.i = getelementptr inbounds i8, ptr %this, i64 32
  store ptr null, ptr %raw_values_.i, align 8
  store ptr getelementptr inbounds ({ [4 x ptr] }, ptr @_ZTVN5arrow20FixedSizeBinaryArrayE, i64 0, i32 0, i64 2), ptr %this, align 8
  invoke void @_ZN5arrow5Array7SetDataERKSt10shared_ptrINS_9ArrayDataEE(ptr noundef nonnull align 8 dereferenceable(32) %this, ptr noundef nonnull align 8 dereferenceable(16) %data)
          to label %.noexc unwind label %lpad

.noexc:                                           ; preds = %entry
  %0 = load ptr, ptr %data, align 8
  %buffers.i.i.i = getelementptr inbounds i8, ptr %0, i64 40
  %1 = load ptr, ptr %buffers.i.i.i, align 8
  %add.ptr.i.i.i.i = getelementptr inbounds i8, ptr %1, i64 16
  %2 = load ptr, ptr %add.ptr.i.i.i.i, align 8
  %cmp.i.not.i.i.i = icmp eq ptr %2, null
  br i1 %cmp.i.not.i.i.i, label %_ZN5arrow14PrimitiveArray7SetDataERKSt10shared_ptrINS_9ArrayDataEE.exit.i, label %land.lhs.true.i.i.i

land.lhs.true.i.i.i:                              ; preds = %.noexc
  %is_cpu_.i.i.i.i = getelementptr inbounds i8, ptr %2, i64 9
  %3 = load i8, ptr %is_cpu_.i.i.i.i, align 1
  %4 = and i8 %3, 1
  %tobool.i.not.i.i.i = icmp eq i8 %4, 0
  br i1 %tobool.i.not.i.i.i, label %_ZN5arrow14PrimitiveArray7SetDataERKSt10shared_ptrINS_9ArrayDataEE.exit.i, label %if.then.i.i.i

if.then.i.i.i:                                    ; preds = %land.lhs.true.i.i.i
  %data_.i.i.i.i = getelementptr inbounds i8, ptr %2, i64 16
  %5 = load ptr, ptr %data_.i.i.i.i, align 8
  br label %_ZN5arrow14PrimitiveArray7SetDataERKSt10shared_ptrINS_9ArrayDataEE.exit.i

_ZN5arrow14PrimitiveArray7SetDataERKSt10shared_ptrINS_9ArrayDataEE.exit.i: ; preds = %if.then.i.i.i, %land.lhs.true.i.i.i, %.noexc
  %retval.0.i.i.i = phi ptr [ %5, %if.then.i.i.i ], [ null, %land.lhs.true.i.i.i ], [ null, %.noexc ]
  store ptr %retval.0.i.i.i, ptr %raw_values_.i, align 8
  %6 = load ptr, ptr %data_.i.i.i, align 8
  %7 = load ptr, ptr %6, align 8
  %vtable.i = load ptr, ptr %7, align 8
  %vfn.i = getelementptr inbounds i8, ptr %vtable.i, i64 64
  %8 = load ptr, ptr %vfn.i, align 8
  %call4.i1 = invoke noundef i32 %8(ptr noundef nonnull align 8 dereferenceable(76) %7)
          to label %invoke.cont unwind label %lpad

invoke.cont:                                      ; preds = %_ZN5arrow14PrimitiveArray7SetDataERKSt10shared_ptrINS_9ArrayDataEE.exit.i
  %byte_width_.i = getelementptr inbounds i8, ptr %this, i64 40
  store i32 %call4.i1, ptr %byte_width_.i, align 8
  ret void

lpad:                                             ; preds = %_ZN5arrow14PrimitiveArray7SetDataERKSt10shared_ptrINS_9ArrayDataEE.exit.i, %entry
  %9 = landingpad { ptr, i32 }
          cleanup
  tail call void @_ZN5arrow14PrimitiveArrayD2Ev(ptr noundef nonnull align 8 dereferenceable(40) %this) #11
  resume { ptr, i32 } %9
}